target datalayout = "e-m:e-p270:32:32-p271:32:32-p272:64:64-i64:64-i128:128-f80:128-n8:16:32:64-S128"
target triple = "x86_64-unknown-linux-gnu"

%struct.HashMap = type { ptr, i32, i32 }
%struct.Scope = type { ptr, %struct.HashMap, %struct.HashMap }
%struct.Token = type { i32, ptr, i64, x86_fp80, ptr, i32, ptr, ptr, ptr, ptr, i32, i32, i8, i8, ptr, ptr }
%struct.Type = type { i32, i32, i32, i8, i8, ptr, ptr, ptr, ptr, i32, ptr, ptr, ptr, i8, i8, ptr, ptr, i8, ptr }

@.str.25 = private unnamed_addr constant [2 x i8] c"{\00", align 1
@scope = internal global ptr @.compoundliteral, align 8

; Function Attrs: nounwind uwtable
define internal void @push_tag_scope(ptr noundef %tok, ptr noundef %ty) #0 {
entry:
  %tok.addr = alloca ptr, align 8
  %ty.addr = alloca ptr, align 8
  store ptr %tok, ptr %tok.addr, align 8
  store ptr %ty, ptr %ty.addr, align 8
  %0 = load ptr, ptr @scope, align 8
  %tags = getelementptr inbounds %struct.Scope, ptr %0, i32 0, i32 2
  %1 = load ptr, ptr %tok.addr, align 8
  %loc = getelementptr inbounds %struct.Token, ptr %1, i32 0, i32 4
  %2 = load ptr, ptr %loc, align 16
  %3 = load ptr, ptr %tok.addr, align 8
  %len = getelementptr inbounds %struct.Token, ptr %3, i32 0, i32 5
  %4 = load i32, ptr %len, align 8
  %5 = load ptr, ptr %ty.addr, align 8
  call void @hashmap_put2(ptr noundef %tags, ptr noundef %2, i32 noundef %4, ptr noundef %5)
  ret void
}

; Function Attrs: nounwind uwtable
define internal ptr @find_tag(ptr noundef %tok) #0 {
entry:
  %retval = alloca ptr, align 8
  %tok.addr = alloca ptr, align 8
  %sc = alloca ptr, align 8
  %ty = alloca ptr, align 8
  store ptr %tok, ptr %tok.addr, align 8
  %0 = load ptr, ptr @scope, align 8
  store ptr %0, ptr %sc, align 8
  br label %for.cond

for.cond:                                         ; preds = %for.inc, %entry
  %1 = load ptr, ptr %sc, align 8
  %tobool = icmp ne ptr %1, null
  br i1 %tobool, label %for.body, label %for.end

for.body:                                         ; preds = %for.cond
  %2 = load ptr, ptr %sc, align 8
  %tags = getelementptr inbounds %struct.Scope, ptr %2, i32 0, i32 2
  %3 = load ptr, ptr %tok.addr, align 8
  %loc = getelementptr inbounds %struct.Token, ptr %3, i32 0, i32 4
  %4 = load ptr, ptr %loc, align 16
  %5 = load ptr, ptr %tok.addr, align 8
  %len = getelementptr inbounds %struct.Token, ptr %5, i32 0, i32 5
  %6 = load i32, ptr %len, align 8
  %call = call ptr @hashmap_get2(ptr noundef %tags, ptr noundef %4, i32 noundef %6)
  store ptr %call, ptr %ty, align 8
  %7 = load ptr, ptr %ty, align 8
  %tobool1 = icmp ne ptr %7, null
  br i1 %tobool1, label %if.then, label %if.end

if.then:                                          ; preds = %for.body
  %8 = load ptr, ptr %ty, align 8
  store ptr %8, ptr %retval, align 8
  br label %return

if.end:                                           ; preds = %for.body
  br label %for.inc

for.inc:                                          ; preds = %if.end
  %9 = load ptr, ptr %sc, align 8
  %next = getelementptr inbounds %struct.Scope, ptr %9, i32 0, i32 0
  %10 = load ptr, ptr %next, align 8
  store ptr %10, ptr %sc, align 8
  br label %for.cond, !llvm.loop !58

for.end:                                          ; preds = %for.cond
  store ptr null, ptr %retval, align 8
  br label %return

return:                                           ; preds = %for.end, %if.then
  %11 = load ptr, ptr %retval, align 8
  ret ptr %11
}

; Function Attrs: nounwind uwtable
define internal ptr @struct_union_decl(ptr noundef %rest, ptr noundef %tok) #0 {
entry:
  %retval = alloca ptr, align 8
  %rest.addr = alloca ptr, align 8
  %tok.addr = alloca ptr, align 8
  %ty = alloca ptr, align 8
  %tag = alloca ptr, align 8
  %ty2 = alloca ptr, align 8
  %ty213 = alloca ptr, align 8
  store ptr %rest, ptr %rest.addr, align 8
  store ptr %tok, ptr %tok.addr, align 8
  %call = call ptr @struct_type()
  store ptr %call, ptr %ty, align 8
  %0 = load ptr, ptr %tok.addr, align 8
  %1 = load ptr, ptr %ty, align 8
  %call1 = call ptr @attribute_list(ptr noundef %0, ptr noundef %1)
  store ptr %call1, ptr %tok.addr, align 8
  store ptr null, ptr %tag, align 8
  %2 = load ptr, ptr %tok.addr, align 8
  %kind = getelementptr inbounds %struct.Token, ptr %2, i32 0, i32 0
  %3 = load i32, ptr %kind, align 16
  %cmp = icmp eq i32 %3, 0
  br i1 %cmp, label %if.then, label %if.end

if.then:                                          ; preds = %entry
  %4 = load ptr, ptr %tok.addr, align 8
  store ptr %4, ptr %tag, align 8
  %5 = load ptr, ptr %tok.addr, align 8
  %next = getelementptr inbounds %struct.Token, ptr %5, i32 0, i32 1
  %6 = load ptr, ptr %next, align 8
  store ptr %6, ptr %tok.addr, align 8
  br label %if.end

if.end:                                           ; preds = %if.then, %entry
  %7 = load ptr, ptr %tag, align 8
  %tobool = icmp ne ptr %7, null
  br i1 %tobool, label %land.lhs.true, label %if.end8

land.lhs.true:                                    ; preds = %if.end
  %8 = load ptr, ptr %tok.addr, align 8
  %call2 = call zeroext i1 @equal(ptr noundef %8, ptr noundef @.str.25)
  br i1 %call2, label %if.end8, label %if.then3

if.then3:                                         ; preds = %land.lhs.true
  %9 = load ptr, ptr %tok.addr, align 8
  %10 = load ptr, ptr %rest.addr, align 8
  store ptr %9, ptr %10, align 8
  %11 = load ptr, ptr %tag, align 8
  %call4 = call ptr @find_tag(ptr noundef %11)
  store ptr %call4, ptr %ty2, align 8
  %12 = load ptr, ptr %ty2, align 8
  %tobool5 = icmp ne ptr %12, null
  br i1 %tobool5, label %if.then6, label %if.end7

if.then6:                                         ; preds = %if.then3
  %13 = load ptr, ptr %ty2, align 8
  store ptr %13, ptr %retval, align 8
  br label %return

if.end7:                                          ; preds = %if.then3
  %14 = load ptr, ptr %ty, align 8
  %size = getelementptr inbounds %struct.Type, ptr %14, i32 0, i32 1
  store i32 -1, ptr %size, align 4
  %15 = load ptr, ptr %tag, align 8
  %16 = load ptr, ptr %ty, align 8
  call void @push_tag_scope(ptr noundef %15, ptr noundef %16)
  %17 = load ptr, ptr %ty, align 8
  store ptr %17, ptr %retval, align 8
  br label %return

if.end8:                                          ; preds = %land.lhs.true, %if.end
  %18 = load ptr, ptr %tok.addr, align 8
  %call9 = call ptr @skip(ptr noundef %18, ptr noundef @.str.25)
  store ptr %call9, ptr %tok.addr, align 8
  %19 = load ptr, ptr %tok.addr, align 8
  %20 = load ptr, ptr %ty, align 8
  call void @struct_members(ptr noundef %tok.addr, ptr noundef %19, ptr noundef %20)
  %21 = load ptr, ptr %tok.addr, align 8
  %22 = load ptr, ptr %ty, align 8
  %call10 = call ptr @attribute_list(ptr noundef %21, ptr noundef %22)
  %23 = load ptr, ptr %rest.addr, align 8
  store ptr %call10, ptr %23, align 8
  %24 = load ptr, ptr %tag, align 8
  %tobool11 = icmp ne ptr %24, null
  br i1 %tobool11, label %if.then12, label %if.end18

if.then12:                                        ; preds = %if.end8
  %25 = load ptr, ptr @scope, align 8
  %tags = getelementptr inbounds %struct.Scope, ptr %25, i32 0, i32 2
  %26 = load ptr, ptr %tag, align 8
  %loc = getelementptr inbounds %struct.Token, ptr %26, i32 0, i32 4
  %27 = load ptr, ptr %loc, align 16
  %28 = load ptr, ptr %tag, align 8
  %len = getelementptr inbounds %struct.Token, ptr %28, i32 0, i32 5
  %29 = load i32, ptr %len, align 8
  %call14 = call ptr @hashmap_get2(ptr noundef %tags, ptr noundef %27, i32 noundef %29)
  store ptr %call14, ptr %ty213, align 8
  %30 = load ptr, ptr %ty213, align 8
  %tobool15 = icmp ne ptr %30, null
  br i1 %tobool15, label %if.then16, label %if.end17

if.then16:                                        ; preds = %if.then12
  %31 = load ptr, ptr %ty213, align 8
  %32 = load ptr, ptr %ty, align 8
  call void @llvm.memcpy.p0.p0.i64(ptr align 8 %31, ptr align 8 %32, i64 120, i1 false)
  %33 = load ptr, ptr %ty213, align 8
  store ptr %33, ptr %retval, align 8
  br label %return

if.end17:                                         ; preds = %if.then12
  %34 = load ptr, ptr %tag, align 8
  %35 = load ptr, ptr %ty, align 8
  call void @push_tag_scope(ptr noundef %34, ptr noundef %35)
  br label %if.end18

if.end18:                                         ; preds = %if.end17, %if.end8
  %36 = load ptr, ptr %ty, align 8
  store ptr %36, ptr %retval, align 8
  br label %return

return:                                           ; preds = %if.end18, %if.then16, %if.end7, %if.then6
  %37 = load ptr, ptr %retval, align 8
  ret ptr %37
}