; Function Attrs: nounwind uwtable
define internal fastcc ptr @struct_union_decl(ptr nocapture noundef writeonly %rest, ptr noundef %tok) unnamed_addr #0 {
entry:
  %tok.addr = alloca ptr, align 8
  %call = tail call ptr @struct_type() #13
  %call1 = tail call fastcc ptr @attribute_list(ptr noundef %tok, ptr noundef %call)
  %0 = load i32, ptr %call1, align 16
  %cmp = icmp eq i32 %0, 0
  br i1 %cmp, label %land.lhs.true, label %if.end18.critedge

land.lhs.true:                                    ; preds = %entry
  %next = getelementptr inbounds %struct.Token, ptr %call1, i64 0, i32 1
  %1 = load ptr, ptr %next, align 8
  %call2 = tail call zeroext i1 @equal(ptr noundef %1, ptr noundef nonnull @.str.25) #13
  br i1 %call2, label %if.then12, label %if.then3

if.then3:                                         ; preds = %land.lhs.true
  store ptr %1, ptr %rest, align 8
  %loc.i = getelementptr %struct.Token, ptr %call1, i64 0, i32 4
  %len.i = getelementptr %struct.Token, ptr %call1, i64 0, i32 5
  br label %for.cond.i

for.cond.i:                                       ; preds = %for.body.i, %if.then3
  %sc.0.in.i = phi ptr [ @scope, %if.then3 ], [ %sc.0.i, %for.body.i ]
  %sc.0.i = load ptr, ptr %sc.0.in.i, align 8
  %tobool.not.i = icmp eq ptr %sc.0.i, null
  br i1 %tobool.not.i, label %if.end7, label %for.body.i

for.body.i:                                       ; preds = %for.cond.i
  %tags.i = getelementptr inbounds %struct.Scope, ptr %sc.0.i, i64 0, i32 2
  %2 = load ptr, ptr %loc.i, align 16
  %3 = load i32, ptr %len.i, align 8
  %call.i = tail call ptr @hashmap_get2(ptr noundef nonnull %tags.i, ptr noundef %2, i32 noundef %3) #13
  %tobool1.not.i = icmp eq ptr %call.i, null
  br i1 %tobool1.not.i, label %for.cond.i, label %return, !llvm.loop !58

if.end7:                                          ; preds = %for.cond.i
  %size = getelementptr inbounds %struct.Type, ptr %call, i64 0, i32 1
  store i32 -1, ptr %size, align 4
  %tag.0.val = load ptr, ptr %loc.i, align 16
  %tag.0.val19 = load i32, ptr %len.i, align 8
  %4 = load ptr, ptr @scope, align 8
  %tags.i22 = getelementptr inbounds %struct.Scope, ptr %4, i64 0, i32 2
  tail call void @hashmap_put2(ptr noundef nonnull %tags.i22, ptr noundef %tag.0.val, i32 noundef %tag.0.val19, ptr noundef %call) #13
  br label %return

if.then12:                                        ; preds = %land.lhs.true
  %call9 = tail call ptr @skip(ptr noundef %1, ptr noundef nonnull @.str.25) #13
  store ptr %call9, ptr %tok.addr, align 8
  call fastcc void @struct_members(ptr noundef nonnull %tok.addr, ptr noundef %call9, ptr noundef %call)
  %5 = load ptr, ptr %tok.addr, align 8
  %call10 = tail call fastcc ptr @attribute_list(ptr noundef %5, ptr noundef %call)
  store ptr %call10, ptr %rest, align 8
  %6 = load ptr, ptr @scope, align 8
  %tags = getelementptr inbounds %struct.Scope, ptr %6, i64 0, i32 2
  %loc = getelementptr inbounds %struct.Token, ptr %call1, i64 0, i32 4
  %7 = load ptr, ptr %loc, align 16
  %len = getelementptr inbounds %struct.Token, ptr %call1, i64 0, i32 5
  %8 = load i32, ptr %len, align 8
  %call14 = tail call ptr @hashmap_get2(ptr noundef nonnull %tags, ptr noundef %7, i32 noundef %8) #13
  %tobool15.not = icmp eq ptr %call14, null
  br i1 %tobool15.not, label %if.end17, label %if.then16

if.then16:                                        ; preds = %if.then12
  tail call void @llvm.memcpy.p0.p0.i64(ptr noundef nonnull align 8 dereferenceable(120) %call14, ptr noundef nonnull align 8 dereferenceable(120) %call, i64 120, i1 false)
  br label %return

if.end17:                                         ; preds = %if.then12
  %tag.0.val20 = load ptr, ptr %loc, align 16
  %tag.0.val21 = load i32, ptr %len, align 8
  %9 = load ptr, ptr @scope, align 8
  %tags.i23 = getelementptr inbounds %struct.Scope, ptr %9, i64 0, i32 2
  tail call void @hashmap_put2(ptr noundef nonnull %tags.i23, ptr noundef %tag.0.val20, i32 noundef %tag.0.val21, ptr noundef %call) #13
  br label %return

if.end18.critedge:                                ; preds = %entry
  %call9.c = tail call ptr @skip(ptr noundef nonnull %call1, ptr noundef nonnull @.str.25) #13
  store ptr %call9.c, ptr %tok.addr, align 8
  call fastcc void @struct_members(ptr noundef nonnull %tok.addr, ptr noundef %call9.c, ptr noundef %call)
  %10 = load ptr, ptr %tok.addr, align 8
  %call10.c = tail call fastcc ptr @attribute_list(ptr noundef %10, ptr noundef %call)
  store ptr %call10.c, ptr %rest, align 8
  br label %return

return:                                           ; preds = %for.body.i, %if.end17, %if.end18.critedge, %if.then16, %if.end7
  %retval.0 = phi ptr [ %call14, %if.then16 ], [ %call, %if.end7 ], [ %call, %if.end18.critedge ], [ %call, %if.end17 ], [ %call.i, %for.body.i ]
  ret ptr %retval.0
}